target datalayout = "e-m:e-p270:32:32-p271:32:32-p272:64:64-i64:64-i128:128-f80:128-n8:16:32:64-S128"
target triple = "x86_64-pc-linux-gnu"

; Function Attrs: null_pointer_is_valid sspstrong uwtable
define hidden ptr @base64_tvb_to_new_tvb(ptr noundef %0, i32 noundef %1, i32 noundef %2) #0 {
  %4 = alloca ptr, align 8
  %5 = alloca i32, align 4
  %6 = alloca i32, align 4
  %7 = alloca ptr, align 8
  %8 = alloca ptr, align 8
  %9 = alloca ptr, align 8
  %10 = alloca i64, align 8
  store ptr %0, ptr %4, align 8
  store i32 %1, ptr %5, align 4
  store i32 %2, ptr %6, align 4
  call void @llvm.lifetime.start.p0(i64 8, ptr %7) #6
  call void @llvm.lifetime.start.p0(i64 8, ptr %8) #6
  call void @llvm.lifetime.start.p0(i64 8, ptr %9) #6
  call void @llvm.lifetime.start.p0(i64 8, ptr %10) #6
  %11 = load ptr, ptr %4, align 8
  %12 = load i32, ptr %5, align 4
  %13 = load i32, ptr %6, align 4
  %14 = call ptr @tvb_get_string_enc(ptr noundef null, ptr noundef %11, i32 noundef %12, i32 noundef %13, i32 noundef 0)
  store ptr %14, ptr %9, align 8
  %15 = load ptr, ptr %9, align 8
  %16 = call noalias ptr @g_base64_decode(ptr noundef %15, ptr noundef %10)
  store ptr %16, ptr %8, align 8
  %17 = load ptr, ptr %9, align 8
  call void @wmem_free(ptr noundef null, ptr noundef %17)
  %18 = load ptr, ptr %4, align 8
  %19 = load ptr, ptr %8, align 8
  %20 = load i64, ptr %10, align 8
  %21 = trunc i64 %20 to i32
  %22 = load i64, ptr %10, align 8
  %23 = trunc i64 %22 to i32
  %24 = call ptr @tvb_new_child_real_data(ptr noundef %18, ptr noundef %19, i32 noundef %21, i32 noundef %23)
  store ptr %24, ptr %7, align 8
  %25 = load ptr, ptr %7, align 8
  call void @tvb_set_free_cb(ptr noundef %25, ptr noundef @g_free)
  %26 = load ptr, ptr %7, align 8
  call void @llvm.lifetime.end.p0(i64 8, ptr %10) #6
  call void @llvm.lifetime.end.p0(i64 8, ptr %9) #6
  call void @llvm.lifetime.end.p0(i64 8, ptr %8) #6
  call void @llvm.lifetime.end.p0(i64 8, ptr %7) #6
  ret ptr %26
}