; Function Attrs: null_pointer_is_valid sspstrong uwtable
define hidden noundef ptr @base64_tvb_to_new_tvb(ptr noundef %0, i32 noundef %1, i32 noundef %2) local_unnamed_addr #0 {
  %4 = alloca i64, align 8
  call void @llvm.lifetime.start.p0(i64 8, ptr nonnull %4) #5
  %5 = tail call ptr @tvb_get_string_enc(ptr noundef null, ptr noundef %0, i32 noundef %1, i32 noundef %2, i32 noundef 0)
  %6 = call noalias ptr @g_base64_decode(ptr noundef %5, ptr noundef nonnull %4)
  call void @wmem_free(ptr noundef null, ptr noundef %5)
  %7 = load i64, ptr %4, align 8
  %8 = trunc i64 %7 to i32
  %9 = call ptr @tvb_new_child_real_data(ptr noundef %0, ptr noundef %6, i32 noundef %8, i32 noundef %8)
  call void @tvb_set_free_cb(ptr noundef %9, ptr noundef nonnull @g_free)
  call void @llvm.lifetime.end.p0(i64 8, ptr nonnull %4) #5
  ret ptr %9
}